; Function Attrs: mustprogress uwtable
define dso_local range(i64 0, -9223372036854775808) i64 @_ZNK4absl24synchronization_internal13KernelTimeout16ToChronoDurationEv(ptr noundef nonnull readonly align 8 captures(none) dereferenceable(8) %0) local_unnamed_addr #5 align 2 personality ptr @__gxx_personality_v0 {
  %2 = load i64, ptr %0, align 8, !tbaa !4
  %.not = icmp eq i64 %2, -1
  br i1 %.not, label %_ZNK4absl24synchronization_internal13KernelTimeout20InNanosecondsFromNowEv.exit, label %3

3:                                                ; preds = %1
  %4 = lshr i64 %2, 1
  %5 = and i64 %2, 1
  %6 = icmp eq i64 %5, 0
  br i1 %6, label %7, label %10

7:                                                ; preds = %3
  %8 = tail call noundef i64 @_ZN4absl19GetCurrentTimeNanosEv()
  %9 = sub nsw i64 %4, %8
  %.sroa.speculated7.i = tail call i64 @llvm.smax.i64(i64 %9, i64 0)
  br label %_ZNK4absl24synchronization_internal13KernelTimeout20InNanosecondsFromNowEv.exit

10:                                               ; preds = %3
  %11 = tail call noundef i64 @_ZNSt6chrono3_V212steady_clock3nowEv() #8
  %12 = sub nsw i64 %4, %11
  %.sroa.speculated.i = tail call i64 @llvm.smax.i64(i64 %12, i64 0)
  br label %_ZNK4absl24synchronization_internal13KernelTimeout20InNanosecondsFromNowEv.exit

_ZNK4absl24synchronization_internal13KernelTimeout20InNanosecondsFromNowEv.exit: ; preds = %10, %7, %1
  %.sroa.0.0 = phi i64 [ 9223372036854775807, %1 ], [ %.sroa.speculated7.i, %7 ], [ %.sroa.speculated.i, %10 ]
  ret i64 %.sroa.0.0
}